target datalayout = "e-m:e-p270:32:32-p271:32:32-p272:64:64-i64:64-i128:128-f80:128-n8:16:32:64-S128"
target triple = "x86_64-pc-linux-gnu"

%struct.cache_bin_info_s = type { i16 }
%struct.tcache_slow_s = type { %struct.anon, %struct.cache_bin_array_descriptor_s, ptr, i32, i32, [36 x i8], [36 x i8], [36 x i8], ptr, ptr }
%struct.anon = type { ptr, ptr }
%struct.cache_bin_array_descriptor_s = type { %struct.anon.0, ptr }
%struct.anon.0 = type { ptr, ptr }
%struct.tcache_s = type { ptr, [73 x %struct.cache_bin_s] }
%struct.cache_bin_s = type { ptr, %struct.cache_bin_stats_s, i16, i16, i16, %struct.cache_bin_info_s }
%struct.cache_bin_stats_s = type { i64 }
%struct.rtree_ctx_s = type { [16 x %struct.rtree_ctx_cache_elm_s], [8 x %struct.rtree_ctx_cache_elm_s] }
%struct.rtree_ctx_cache_elm_s = type { i64, ptr }
%struct.tsd_s = type { i8, i8, i8, i64, i64, i64, i64, i64, i64, i64, i64, i64, i64, i64, i64, ptr, i64, i64, i64, ptr, ptr, %struct.ticker_geom_s, i8, %struct.tsd_binshards_s, %struct.tsd_link_t, i8, %struct.peak_s, %struct.activity_callback_thunk_s, %struct.tcache_slow_s, %struct.rtree_ctx_s, %struct.atomic_u8_t, i64, i64, i64, i64, %struct.tcache_s, %struct.witness_tsd_s }
%struct.ticker_geom_s = type { i32, i32 }
%struct.tsd_binshards_s = type { [36 x i8] }
%struct.tsd_link_t = type { ptr, ptr }
%struct.peak_s = type { i64, i64 }
%struct.activity_callback_thunk_s = type { ptr, ptr }
%struct.atomic_u8_t = type { i8 }
%struct.witness_tsd_s = type { %struct.witness_list_t, i8 }
%struct.witness_list_t = type { ptr }

@duckdb_je_sz_size2index_tab = external global [0 x i8], align 1
@duckdb_je_disabled_bin = external constant i64, align 8

; Function Attrs: alwaysinline nounwind uwtable
define internal ptr @tsd_tcache_enabledp_get_unsafe(ptr noundef %0) #1 {
  %2 = alloca ptr, align 8
  store ptr %0, ptr %2, align 8, !tbaa !13
  %3 = load ptr, ptr %2, align 8, !tbaa !13
  %4 = getelementptr inbounds nuw %struct.tsd_s, ptr %3, i32 0, i32 0
  ret ptr %4
}

; Function Attrs: inlinehint nounwind uwtable
define internal ptr @cache_bin_disabled_bin_stack() #3 {
  ret ptr @duckdb_je_disabled_bin
}

; Function Attrs: alwaysinline nounwind uwtable
define internal i32 @sz_size2index_lookup_impl(i64 noundef %0) #1 {
  %2 = alloca i64, align 8
  store i64 %0, ptr %2, align 8, !tbaa !15
  br label %3

3:                                                ; preds = %1
  br label %4

4:                                                ; preds = %3
  %5 = load i64, ptr %2, align 8, !tbaa !15
  %6 = add i64 %5, 8
  %7 = sub i64 %6, 1
  %8 = lshr i64 %7, 3
  %9 = getelementptr inbounds nuw [0 x i8], ptr @duckdb_je_sz_size2index_tab, i64 0, i64 %8
  %10 = load i8, ptr %9, align 1, !tbaa !36
  %11 = zext i8 %10 to i32
  ret i32 %11
}

; Function Attrs: alwaysinline nounwind uwtable
define internal ptr @tsd_tcache_enabledp_get(ptr noundef %0) #1 {
  %2 = alloca ptr, align 8
  %3 = alloca i8, align 1
  store ptr %0, ptr %2, align 8, !tbaa !13
  call void @llvm.lifetime.start.p0(i64 1, ptr %3) #13
  %4 = load ptr, ptr %2, align 8, !tbaa !13
  %5 = call zeroext i8 @tsd_state_get(ptr noundef %4)
  store i8 %5, ptr %3, align 1, !tbaa !36
  br label %6

6:                                                ; preds = %1
  br label %7

7:                                                ; preds = %6
  br label %8

8:                                                ; preds = %7
  %9 = load ptr, ptr %2, align 8, !tbaa !13
  %10 = call ptr @tsd_tcache_enabledp_get_unsafe(ptr noundef %9)
  call void @llvm.lifetime.end.p0(i64 1, ptr %3) #13
  ret ptr %10
}

; Function Attrs: inlinehint nounwind uwtable
define internal zeroext i16 @cache_bin_ncached_max_get_unsafe(ptr noundef %0) #3 {
  %2 = alloca ptr, align 8
  store ptr %0, ptr %2, align 8, !tbaa !31
  %3 = load ptr, ptr %2, align 8, !tbaa !31
  %4 = getelementptr inbounds nuw %struct.cache_bin_s, ptr %3, i32 0, i32 5
  %5 = getelementptr inbounds nuw %struct.cache_bin_info_s, ptr %4, i32 0, i32 0
  %6 = load i16, ptr %5, align 2, !tbaa !167
  ret i16 %6
}

; Function Attrs: inlinehint nounwind uwtable
define internal i32 @tcache_nbins_get(ptr noundef %0) #3 {
  %2 = alloca ptr, align 8
  %3 = alloca i32, align 4
  store ptr %0, ptr %2, align 8, !tbaa !19
  br label %4

4:                                                ; preds = %1
  br label %5

5:                                                ; preds = %4
  call void @llvm.lifetime.start.p0(i64 4, ptr %3) #13
  %6 = load ptr, ptr %2, align 8, !tbaa !19
  %7 = getelementptr inbounds nuw %struct.tcache_slow_s, ptr %6, i32 0, i32 3
  %8 = load i32, ptr %7, align 8, !tbaa !115
  store i32 %8, ptr %3, align 4, !tbaa !29
  br label %9

9:                                                ; preds = %5
  br label %10

10:                                               ; preds = %9
  br label %11

11:                                               ; preds = %10
  %12 = load i32, ptr %3, align 4, !tbaa !29
  call void @llvm.lifetime.end.p0(i64 4, ptr %3) #13
  ret i32 %12
}

; Function Attrs: inlinehint nounwind uwtable
define internal zeroext i1 @cache_bin_disabled(ptr noundef %0) #3 {
  %2 = alloca ptr, align 8
  %3 = alloca i8, align 1
  store ptr %0, ptr %2, align 8, !tbaa !31
  call void @llvm.lifetime.start.p0(i64 1, ptr %3) #13
  %4 = load ptr, ptr %2, align 8, !tbaa !31
  %5 = getelementptr inbounds nuw %struct.cache_bin_s, ptr %4, i32 0, i32 0
  %6 = load ptr, ptr %5, align 8, !tbaa !44
  %7 = call ptr @cache_bin_disabled_bin_stack()
  %8 = icmp eq ptr %6, %7
  %9 = zext i1 %8 to i8
  store i8 %9, ptr %3, align 1, !tbaa !30
  %10 = load i8, ptr %3, align 1, !tbaa !30, !range !32, !noundef !33
  %11 = trunc i8 %10 to i1
  br i1 %11, label %12, label %16

12:                                               ; preds = %1
  br label %13

13:                                               ; preds = %12
  br label %14

14:                                               ; preds = %13
  br label %15

15:                                               ; preds = %14
  br label %16

16:                                               ; preds = %15, %1
  %17 = load i8, ptr %3, align 1, !tbaa !30, !range !32, !noundef !33
  %18 = trunc i8 %17 to i1
  call void @llvm.lifetime.end.p0(i64 1, ptr %3) #13
  ret i1 %18
}

; Function Attrs: alwaysinline nounwind uwtable
define internal i32 @sz_size2index_lookup(i64 noundef %0) #1 {
  %2 = alloca i64, align 8
  %3 = alloca i32, align 4
  store i64 %0, ptr %2, align 8, !tbaa !15
  call void @llvm.lifetime.start.p0(i64 4, ptr %3) #13
  %4 = load i64, ptr %2, align 8, !tbaa !15
  %5 = call i32 @sz_size2index_lookup_impl(i64 noundef %4)
  store i32 %5, ptr %3, align 4, !tbaa !29
  br label %6

6:                                                ; preds = %1
  br label %7

7:                                                ; preds = %6
  br label %8

8:                                                ; preds = %7
  %9 = load i32, ptr %3, align 4, !tbaa !29
  call void @llvm.lifetime.end.p0(i64 4, ptr %3) #13
  ret i32 %9
}

; Function Attrs: alwaysinline nounwind uwtable
define internal ptr @tsd_tcachep_get_unsafe(ptr noundef %0) #1 {
  %2 = alloca ptr, align 8
  store ptr %0, ptr %2, align 8, !tbaa !13
  %3 = load ptr, ptr %2, align 8, !tbaa !13
  %4 = getelementptr inbounds nuw %struct.tsd_s, ptr %3, i32 0, i32 35
  ret ptr %4
}

; Function Attrs: alwaysinline nounwind uwtable
define internal zeroext i8 @tsd_state_get(ptr noundef %0) #1 {
  %2 = alloca ptr, align 8
  store ptr %0, ptr %2, align 8, !tbaa !13
  %3 = load ptr, ptr %2, align 8, !tbaa !13
  %4 = getelementptr inbounds nuw %struct.tsd_s, ptr %3, i32 0, i32 30
  %5 = load i8, ptr %4, align 8, !tbaa !36
  ret i8 %5
}

; Function Attrs: alwaysinline nounwind uwtable
define internal zeroext i1 @tsd_tcache_enabled_get(ptr noundef %0) #1 {
  %2 = alloca ptr, align 8
  store ptr %0, ptr %2, align 8, !tbaa !13
  %3 = load ptr, ptr %2, align 8, !tbaa !13
  %4 = call ptr @tsd_tcache_enabledp_get(ptr noundef %3)
  %5 = load i8, ptr %4, align 1, !tbaa !30, !range !32, !noundef !33
  %6 = trunc i8 %5 to i1
  ret i1 %6
}

; Function Attrs: inlinehint nounwind uwtable
define internal zeroext i16 @cache_bin_ncached_max_get(ptr noundef %0) #3 {
  %2 = alloca ptr, align 8
  store ptr %0, ptr %2, align 8, !tbaa !31
  br label %3

3:                                                ; preds = %1
  br label %4

4:                                                ; preds = %3
  %5 = load ptr, ptr %2, align 8, !tbaa !31
  %6 = call zeroext i16 @cache_bin_ncached_max_get_unsafe(ptr noundef %5)
  ret i16 %6
}

; Function Attrs: alwaysinline nounwind uwtable
define internal zeroext i1 @tcache_bin_disabled(i32 noundef %0, ptr noundef %1, ptr noundef %2) #1 {
  %4 = alloca i32, align 4
  %5 = alloca ptr, align 8
  %6 = alloca ptr, align 8
  %7 = alloca i8, align 1
  %8 = alloca i32, align 4
  %9 = alloca i16, align 2
  store i32 %0, ptr %4, align 4, !tbaa !29
  store ptr %1, ptr %5, align 8, !tbaa !31
  store ptr %2, ptr %6, align 8, !tbaa !19
  br label %10

10:                                               ; preds = %3
  br label %11

11:                                               ; preds = %10
  br label %12

12:                                               ; preds = %11
  br label %13

13:                                               ; preds = %12
  call void @llvm.lifetime.start.p0(i64 1, ptr %7) #13
  %14 = load ptr, ptr %5, align 8, !tbaa !31
  %15 = call zeroext i1 @cache_bin_disabled(ptr noundef %14)
  %16 = zext i1 %15 to i8
  store i8 %16, ptr %7, align 1, !tbaa !30
  call void @llvm.lifetime.start.p0(i64 4, ptr %8) #13
  %17 = load ptr, ptr %6, align 8, !tbaa !19
  %18 = call i32 @tcache_nbins_get(ptr noundef %17)
  store i32 %18, ptr %8, align 4, !tbaa !29
  call void @llvm.lifetime.start.p0(i64 2, ptr %9) #13
  %19 = load ptr, ptr %5, align 8, !tbaa !31
  %20 = call zeroext i16 @cache_bin_ncached_max_get_unsafe(ptr noundef %19)
  store i16 %20, ptr %9, align 2, !tbaa !34
  %21 = load i32, ptr %4, align 4, !tbaa !29
  %22 = load i32, ptr %8, align 4, !tbaa !29
  %23 = icmp uge i32 %21, %22
  br i1 %23, label %24, label %28

24:                                               ; preds = %13
  br label %25

25:                                               ; preds = %24
  br label %26

26:                                               ; preds = %25
  br label %27

27:                                               ; preds = %26
  br label %32

28:                                               ; preds = %13
  br label %29

29:                                               ; preds = %28
  br label %30

30:                                               ; preds = %29
  br label %31

31:                                               ; preds = %30
  br label %32

32:                                               ; preds = %31, %27
  %33 = load i16, ptr %9, align 2, !tbaa !34
  %34 = zext i16 %33 to i32
  %35 = icmp eq i32 %34, 0
  br i1 %35, label %36, label %40

36:                                               ; preds = %32
  br label %37

37:                                               ; preds = %36
  br label %38

38:                                               ; preds = %37
  br label %39

39:                                               ; preds = %38
  br label %44

40:                                               ; preds = %32
  br label %41

41:                                               ; preds = %40
  br label %42

42:                                               ; preds = %41
  br label %43

43:                                               ; preds = %42
  br label %44

44:                                               ; preds = %43, %39
  %45 = load i8, ptr %7, align 1, !tbaa !30, !range !32, !noundef !33
  %46 = trunc i8 %45 to i1
  br i1 %46, label %47, label %51

47:                                               ; preds = %44
  br label %48

48:                                               ; preds = %47
  br label %49

49:                                               ; preds = %48
  br label %50

50:                                               ; preds = %49
  br label %55

51:                                               ; preds = %44
  br label %52

52:                                               ; preds = %51
  br label %53

53:                                               ; preds = %52
  br label %54

54:                                               ; preds = %53
  br label %55

55:                                               ; preds = %54, %50
  %56 = load i8, ptr %7, align 1, !tbaa !30, !range !32, !noundef !33
  %57 = trunc i8 %56 to i1
  call void @llvm.lifetime.end.p0(i64 2, ptr %9) #13
  call void @llvm.lifetime.end.p0(i64 4, ptr %8) #13
  call void @llvm.lifetime.end.p0(i64 1, ptr %7) #13
  ret i1 %57
}

; Function Attrs: alwaysinline nounwind uwtable
define internal i32 @sz_size2index(i64 noundef %0) #1 {
  %2 = alloca i32, align 4
  %3 = alloca i64, align 8
  store i64 %0, ptr %3, align 8, !tbaa !15
  %4 = load i64, ptr %3, align 8, !tbaa !15
  %5 = icmp ule i64 %4, 4096
  %6 = xor i1 %5, true
  %7 = xor i1 %6, true
  %8 = zext i1 %7 to i32
  %9 = sext i32 %8 to i64
  %10 = call i64 @llvm.expect.i64(i64 %9, i64 1)
  %11 = icmp ne i64 %10, 0
  br i1 %11, label %12, label %15

12:                                               ; preds = %1
  %13 = load i64, ptr %3, align 8, !tbaa !15
  %14 = call i32 @sz_size2index_lookup(i64 noundef %13)
  store i32 %14, ptr %2, align 4
  br label %18

15:                                               ; preds = %1
  %16 = load i64, ptr %3, align 8, !tbaa !15
  %17 = call i32 @sz_size2index_compute(i64 noundef %16)
  store i32 %17, ptr %2, align 4
  br label %18

18:                                               ; preds = %15, %12
  %19 = load i32, ptr %2, align 4
  ret i32 %19
}

; Function Attrs: alwaysinline nounwind uwtable
define internal ptr @tsd_tcachep_get(ptr noundef %0) #1 {
  %2 = alloca ptr, align 8
  %3 = alloca i8, align 1
  store ptr %0, ptr %2, align 8, !tbaa !13
  call void @llvm.lifetime.start.p0(i64 1, ptr %3) #13
  %4 = load ptr, ptr %2, align 8, !tbaa !13
  %5 = call zeroext i8 @tsd_state_get(ptr noundef %4)
  store i8 %5, ptr %3, align 1, !tbaa !36
  br label %6

6:                                                ; preds = %1
  br label %7

7:                                                ; preds = %6
  br label %8

8:                                                ; preds = %7
  %9 = load ptr, ptr %2, align 8, !tbaa !13
  %10 = call ptr @tsd_tcachep_get_unsafe(ptr noundef %9)
  call void @llvm.lifetime.end.p0(i64 1, ptr %3) #13
  ret ptr %10
}

; Function Attrs: alwaysinline nounwind uwtable
define internal zeroext i1 @tcache_available(ptr noundef %0) #1 {
  %2 = alloca i1, align 1
  %3 = alloca ptr, align 8
  store ptr %0, ptr %3, align 8, !tbaa !13
  %4 = load ptr, ptr %3, align 8, !tbaa !13
  %5 = call zeroext i1 @tsd_tcache_enabled_get(ptr noundef %4)
  %6 = xor i1 %5, true
  %7 = xor i1 %6, true
  %8 = zext i1 %7 to i32
  %9 = sext i32 %8 to i64
  %10 = call i64 @llvm.expect.i64(i64 %9, i64 1)
  %11 = icmp ne i64 %10, 0
  br i1 %11, label %12, label %13

12:                                               ; preds = %1
  store i1 true, ptr %2, align 1
  br label %14

13:                                               ; preds = %1
  store i1 false, ptr %2, align 1
  br label %14

14:                                               ; preds = %13, %12
  %15 = load i1, ptr %2, align 1
  ret i1 %15
}

; Function Attrs: nounwind uwtable
define zeroext i1 @duckdb_je_tcache_bin_ncached_max_read(ptr noundef %0, i64 noundef %1, ptr noundef %2) #0 {
  %4 = alloca i1, align 1
  %5 = alloca ptr, align 8
  %6 = alloca i64, align 8
  %7 = alloca ptr, align 8
  %8 = alloca ptr, align 8
  %9 = alloca i32, align 4
  %10 = alloca ptr, align 8
  store ptr %0, ptr %5, align 8, !tbaa !13
  store i64 %1, ptr %6, align 8, !tbaa !15
  store ptr %2, ptr %7, align 8, !tbaa !52
  %11 = load i64, ptr %6, align 8, !tbaa !15
  %12 = icmp ugt i64 %11, 8388608
  br i1 %12, label %13, label %14

13:                                               ; preds = %3
  store i1 true, ptr %4, align 1
  br label %47

14:                                               ; preds = %3
  %15 = load ptr, ptr %5, align 8, !tbaa !13
  %16 = call zeroext i1 @tcache_available(ptr noundef %15)
  br i1 %16, label %19, label %17

17:                                               ; preds = %14
  %18 = load ptr, ptr %7, align 8, !tbaa !52
  store i16 0, ptr %18, align 2, !tbaa !34
  store i1 false, ptr %4, align 1
  br label %47

19:                                               ; preds = %14
  call void @llvm.lifetime.start.p0(i64 8, ptr %8) #13
  %20 = load ptr, ptr %5, align 8, !tbaa !13
  %21 = call ptr @tsd_tcachep_get(ptr noundef %20)
  store ptr %21, ptr %8, align 8, !tbaa !17
  br label %22

22:                                               ; preds = %19
  br label %23

23:                                               ; preds = %22
  br label %24

24:                                               ; preds = %23
  call void @llvm.lifetime.start.p0(i64 4, ptr %9) #13
  %25 = load i64, ptr %6, align 8, !tbaa !15
  %26 = call i32 @sz_size2index(i64 noundef %25)
  store i32 %26, ptr %9, align 4, !tbaa !29
  call void @llvm.lifetime.start.p0(i64 8, ptr %10) #13
  %27 = load ptr, ptr %8, align 8, !tbaa !17
  %28 = getelementptr inbounds nuw %struct.tcache_s, ptr %27, i32 0, i32 1
  %29 = load i32, ptr %9, align 4, !tbaa !29
  %30 = zext i32 %29 to i64
  %31 = getelementptr inbounds nuw [73 x %struct.cache_bin_s], ptr %28, i64 0, i64 %30
  store ptr %31, ptr %10, align 8, !tbaa !31
  %32 = load i32, ptr %9, align 4, !tbaa !29
  %33 = load ptr, ptr %10, align 8, !tbaa !31
  %34 = load ptr, ptr %8, align 8, !tbaa !17
  %35 = getelementptr inbounds nuw %struct.tcache_s, ptr %34, i32 0, i32 0
  %36 = load ptr, ptr %35, align 8, !tbaa !40
  %37 = call zeroext i1 @tcache_bin_disabled(i32 noundef %32, ptr noundef %33, ptr noundef %36)
  br i1 %37, label %38, label %39

38:                                               ; preds = %24
  br label %43

39:                                               ; preds = %24
  %40 = load ptr, ptr %10, align 8, !tbaa !31
  %41 = call zeroext i16 @cache_bin_ncached_max_get(ptr noundef %40)
  %42 = zext i16 %41 to i32
  br label %43

43:                                               ; preds = %39, %38
  %44 = phi i32 [ 0, %38 ], [ %42, %39 ]
  %45 = trunc i32 %44 to i16
  %46 = load ptr, ptr %7, align 8, !tbaa !52
  store i16 %45, ptr %46, align 2, !tbaa !34
  store i1 false, ptr %4, align 1
  call void @llvm.lifetime.end.p0(i64 8, ptr %10) #13
  call void @llvm.lifetime.end.p0(i64 4, ptr %9) #13
  call void @llvm.lifetime.end.p0(i64 8, ptr %8) #13
  br label %47

47:                                               ; preds = %43, %17, %13
  %48 = load i1, ptr %4, align 1
  ret i1 %48
}