; Function Attrs: mustprogress nofree norecurse nosync nounwind willreturn memory(read, argmem: readwrite, inaccessiblemem: none) uwtable
define noundef zeroext i1 @duckdb_je_tcache_bin_ncached_max_read(ptr noundef readonly captures(none) %0, i64 noundef %1, ptr noundef writeonly captures(none) %2) local_unnamed_addr #5 {
  %4 = icmp ugt i64 %1, 8388608
  br i1 %4, label %24, label %5

5:                                                ; preds = %3
  %6 = load i8, ptr %0, align 1, !tbaa !17, !range !19, !noundef !20
  %7 = trunc nuw i8 %6 to i1
  br i1 %7, label %8, label %.sink.split

8:                                                ; preds = %5
  %9 = icmp samesign ult i64 %1, 4097
  br i1 %9, label %10, label %16, !prof !11

10:                                               ; preds = %8
  %11 = add nuw nsw i64 %1, 7
  %12 = lshr i64 %11, 3
  %13 = getelementptr inbounds nuw [0 x i8], ptr @duckdb_je_sz_size2index_tab, i64 0, i64 %12
  %14 = load i8, ptr %13, align 1, !tbaa !39
  %15 = zext i8 %14 to i32
  br label %sz_size2index.exit

16:                                               ; preds = %8
  %17 = tail call fastcc i32 @sz_size2index_compute(i64 noundef %1)
  br label %sz_size2index.exit

sz_size2index.exit:                               ; preds = %10, %16
  %.0.i = phi i32 [ %15, %10 ], [ %17, %16 ]
  %18 = getelementptr inbounds nuw i8, ptr %0, i64 872
  %19 = zext nneg i32 %.0.i to i64
  %20 = getelementptr inbounds nuw [73 x %struct.cache_bin_s], ptr %18, i64 0, i64 %19
  %.val = load ptr, ptr %20, align 8, !tbaa !32
  %21 = icmp eq ptr %.val, @duckdb_je_disabled_bin
  br i1 %21, label %.sink.split, label %22

22:                                               ; preds = %sz_size2index.exit
  %23 = getelementptr i8, ptr %20, i64 22
  %.val15 = load i16, ptr %23, align 2, !tbaa !40
  br label %.sink.split

.sink.split:                                      ; preds = %22, %sz_size2index.exit, %5
  %.sink = phi i16 [ 0, %5 ], [ %.val15, %22 ], [ 0, %sz_size2index.exit ]
  store i16 %.sink, ptr %2, align 2, !tbaa !127
  br label %24

24:                                               ; preds = %.sink.split, %3
  ret i1 %4
}